target datalayout = "e-m:e-p270:32:32-p271:32:32-p272:64:64-i64:64-i128:128-f80:128-n8:16:32:64-S128"
target triple = "x86_64-pc-linux-gnu"

%class.symbol = type { ptr }
%"class.intblast::translator_trail" = type { %class.bv2int_translator_trail, ptr }
%class.bv2int_translator_trail = type { ptr }
%"class.sat::extension" = type { ptr, i8, i32, %class.symbol, ptr }
%"class.euf::th_internalizer" = type { ptr, %class.ptr_vector, %class.svector }
%class.ptr_vector = type { %class.vector }
%class.vector = type { ptr }
%class.svector = type { %class.vector.0 }
%class.vector.0 = type { ptr }
%"class.euf::th_decompile" = type { ptr }
%class.ptr_vector.24 = type { %class.vector.25 }
%class.vector.25 = type { ptr }
%class.svector.5 = type { %class.vector.6 }
%class.vector.6 = type { ptr }
%class.arith_util = type { ptr, ptr }
%class.bv_util = type { %class.bv_recognizers, ptr, ptr }
%class.bv_recognizers = type { i32 }
%class.obj_mark = type { [8 x i8], %class.bit_vector }
%class.bit_vector = type { i32, i32, ptr }
%class.ref_vector.85 = type { %class.ref_vector_core.86 }
%class.ref_vector_core.86 = type { %class.ref_manager_wrapper.87, %class.ptr_vector.88 }
%class.ref_manager_wrapper.87 = type { ptr }
%class.ptr_vector.88 = type { %class.vector.89 }
%class.vector.89 = type { ptr }
%class.scoped_ptr.97 = type { ptr }
%class.statistics = type { %class.svector.135, %class.svector.137 }
%class.svector.135 = type { %class.vector.136 }
%class.vector.136 = type { ptr }
%class.svector.137 = type { %class.vector.138 }
%class.vector.138 = type { ptr }
%class.svector.59 = type { %class.vector.60 }
%class.vector.60 = type { ptr }
%class.ref_vector = type { %class.ref_vector_core }
%class.ref_vector_core = type { %class.ref_manager_wrapper, %class.ptr_vector.24 }
%class.ref_manager_wrapper = type { ptr }
%"class.intblast::solver" = type <{ %"class.euf::th_euf_solver.base", [4 x i8], ptr, ptr, ptr, %class.bv_util, %class.arith_util, %"class.intblast::translator_trail", %class.bv2int_translator, %class.scoped_ptr.97, %class.svector.59, %class.statistics, i8, [3 x i8], i32, i32, [4 x i8] }>
%"class.euf::th_euf_solver.base" = type <{ %"class.euf::th_solver", ptr, %class.ptr_vector, %class.svector.5, i32 }>
%"class.euf::th_solver" = type { %"class.sat::extension", %"class.euf::th_model_builder", %"class.euf::th_decompile", %"class.euf::th_internalizer", ptr }
%"class.euf::th_model_builder" = type { ptr }
%class.bv2int_translator = type <{ ptr, ptr, %class.bv_util, %class.arith_util, %class.obj_map.155, %class.ref_vector, %class.ref_vector, %class.ref_vector.85, %class.ptr_vector.160, %class.ptr_vector.160, %class.ref_vector, %class.ref_vector, i8, [7 x i8] }>
%class.obj_map.155 = type { %class.core_hashtable.156 }
%class.core_hashtable.156 = type <{ ptr, i32, i32, i32, [4 x i8] }>
%class.ptr_vector.160 = type { %class.vector.161 }
%class.vector.161 = type { ptr }
%class.anon.218 = type { ptr }
%"class.subterms::iterator" = type { i8, %class.ptr_vector.24, ptr, %class.obj_mark, ptr }

; Function Attrs: inlinehint mustprogress uwtable
define internal noundef zeroext i1 @"_ZZN8intblast6solver5is_bvEN3sat7literalEENK3$_0clI4exprEEDaPT_"(ptr noundef nonnull align 8 dereferenceable(8) %0, ptr noundef %1) #9 align 2 {
  %3 = alloca ptr, align 8
  %4 = alloca ptr, align 8
  store ptr %0, ptr %3, align 8, !tbaa !539
  store ptr %1, ptr %4, align 8, !tbaa !437
  %5 = load ptr, ptr %3, align 8
  %6 = getelementptr inbounds nuw %class.anon.218, ptr %5, i32 0, i32 0
  %7 = load ptr, ptr %6, align 8, !tbaa !544
  %8 = getelementptr inbounds nuw %"class.intblast::solver", ptr %7, i32 0, i32 5
  %9 = load ptr, ptr %4, align 8, !tbaa !437
  %10 = call noundef ptr @_ZNK4expr8get_sortEv(ptr noundef nonnull align 4 dereferenceable(16) %9)
  %11 = call noundef zeroext i1 @_ZNK14bv_recognizers10is_bv_sortEPK4sort(ptr noundef nonnull align 4 dereferenceable(4) %8, ptr noundef %10)
  ret i1 %11
}

; Function Attrs: mustprogress uwtable
define internal noundef zeroext i1 @"_Z6any_ofI8subtermsZN8intblast6solver5is_bvEN3sat7literalEE3$_0EbRKT_RKT0_"(ptr noundef nonnull align 8 dereferenceable(40) %0, ptr noundef nonnull align 8 dereferenceable(8) %1) #4 personality ptr @__gxx_personality_v0 {
  %3 = alloca i1, align 1
  %4 = alloca ptr, align 8
  %5 = alloca ptr, align 8
  %6 = alloca ptr, align 8
  %7 = alloca %"class.subterms::iterator", align 8
  %8 = alloca %"class.subterms::iterator", align 8
  %9 = alloca ptr, align 8
  %10 = alloca i32, align 4
  %11 = alloca i32, align 4
  %12 = alloca ptr, align 8
  %13 = alloca ptr, align 8
  store ptr %0, ptr %4, align 8, !tbaa !553
  store ptr %1, ptr %5, align 8, !tbaa !539
  call void @llvm.lifetime.start.p0(i64 8, ptr %6) #3
  %14 = load ptr, ptr %4, align 8, !tbaa !553
  store ptr %14, ptr %6, align 8, !tbaa !553
  call void @llvm.lifetime.start.p0(i64 56, ptr %7) #3
  %15 = load ptr, ptr %6, align 8, !tbaa !553
  call void @_ZNK8subterms5beginEv(ptr dead_on_unwind writable sret(%"class.subterms::iterator") align 8 %7, ptr noundef nonnull align 8 dereferenceable(40) %15)
  call void @llvm.lifetime.start.p0(i64 56, ptr %8) #3
  %16 = load ptr, ptr %6, align 8, !tbaa !553
  invoke void @_ZNK8subterms3endEv(ptr dead_on_unwind writable sret(%"class.subterms::iterator") align 8 %8, ptr noundef nonnull align 8 dereferenceable(40) %16)
          to label %17 unwind label %22

17:                                               ; preds = %2
  br label %18

18:                                               ; preds = %53, %17
  %19 = invoke noundef zeroext i1 @_ZNK8subterms8iteratorneERKS0_(ptr noundef nonnull align 8 dereferenceable(56) %7, ptr noundef nonnull align 8 dereferenceable(56) %8)
          to label %20 unwind label %26

20:                                               ; preds = %18
  br i1 %19, label %30, label %21

21:                                               ; preds = %20
  store i32 2, ptr %11, align 4
  br label %55

22:                                               ; preds = %2
  %23 = landingpad { ptr, i32 }
          cleanup
  %24 = extractvalue { ptr, i32 } %23, 0
  store ptr %24, ptr %9, align 8
  %25 = extractvalue { ptr, i32 } %23, 1
  store i32 %25, ptr %10, align 4
  br label %58

26:                                               ; preds = %51, %18
  %27 = landingpad { ptr, i32 }
          cleanup
  %28 = extractvalue { ptr, i32 } %27, 0
  store ptr %28, ptr %9, align 8
  %29 = extractvalue { ptr, i32 } %27, 1
  store i32 %29, ptr %10, align 4
  br label %57

30:                                               ; preds = %20
  call void @llvm.lifetime.start.p0(i64 8, ptr %12) #3
  call void @llvm.lifetime.start.p0(i64 8, ptr %13) #3
  %31 = invoke noundef ptr @_ZN8subterms8iteratordeEv(ptr noundef nonnull align 8 dereferenceable(56) %7)
          to label %32 unwind label %39

32:                                               ; preds = %30
  store ptr %31, ptr %13, align 8, !tbaa !437
  store ptr %13, ptr %12, align 8, !tbaa !500
  %33 = load ptr, ptr %5, align 8, !tbaa !539
  %34 = load ptr, ptr %12, align 8, !tbaa !500
  %35 = load ptr, ptr %34, align 8, !tbaa !437
  %36 = invoke noundef zeroext i1 @"_ZZN8intblast6solver5is_bvEN3sat7literalEENK3$_0clI4exprEEDaPT_"(ptr noundef nonnull align 8 dereferenceable(8) %33, ptr noundef %35)
          to label %37 unwind label %43

37:                                               ; preds = %32
  br i1 %36, label %38, label %47

38:                                               ; preds = %37
  store i1 true, ptr %3, align 1
  store i32 1, ptr %11, align 4
  br label %48

39:                                               ; preds = %30
  %40 = landingpad { ptr, i32 }
          cleanup
  %41 = extractvalue { ptr, i32 } %40, 0
  store ptr %41, ptr %9, align 8
  %42 = extractvalue { ptr, i32 } %40, 1
  store i32 %42, ptr %10, align 4
  br label %54

43:                                               ; preds = %32
  %44 = landingpad { ptr, i32 }
          cleanup
  %45 = extractvalue { ptr, i32 } %44, 0
  store ptr %45, ptr %9, align 8
  %46 = extractvalue { ptr, i32 } %44, 1
  store i32 %46, ptr %10, align 4
  call void @llvm.lifetime.end.p0(i64 8, ptr %13) #3
  br label %54

47:                                               ; preds = %37
  store i32 0, ptr %11, align 4
  br label %48

48:                                               ; preds = %47, %38
  call void @llvm.lifetime.end.p0(i64 8, ptr %13) #3
  call void @llvm.lifetime.end.p0(i64 8, ptr %12) #3
  %49 = load i32, ptr %11, align 4
  switch i32 %49, label %55 [
    i32 0, label %50
  ]

50:                                               ; preds = %48
  br label %51

51:                                               ; preds = %50
  %52 = invoke noundef nonnull align 8 dereferenceable(56) ptr @_ZN8subterms8iteratorppEv(ptr noundef nonnull align 8 dereferenceable(56) %7)
          to label %53 unwind label %26

53:                                               ; preds = %51
  br label %18

54:                                               ; preds = %43, %39
  call void @llvm.lifetime.end.p0(i64 8, ptr %12) #3
  br label %57

55:                                               ; preds = %48, %21
  call void @_ZN8subterms8iteratorD2Ev(ptr noundef nonnull align 8 dereferenceable(56) %8) #3
  call void @llvm.lifetime.end.p0(i64 56, ptr %8) #3
  call void @_ZN8subterms8iteratorD2Ev(ptr noundef nonnull align 8 dereferenceable(56) %7) #3
  call void @llvm.lifetime.end.p0(i64 56, ptr %7) #3
  call void @llvm.lifetime.end.p0(i64 8, ptr %6) #3
  %56 = load i32, ptr %11, align 4
  switch i32 %56, label %67 [
    i32 2, label %59
    i32 1, label %60
  ]

57:                                               ; preds = %54, %26
  call void @_ZN8subterms8iteratorD2Ev(ptr noundef nonnull align 8 dereferenceable(56) %8) #3
  br label %58

58:                                               ; preds = %57, %22
  call void @llvm.lifetime.end.p0(i64 56, ptr %8) #3
  call void @_ZN8subterms8iteratorD2Ev(ptr noundef nonnull align 8 dereferenceable(56) %7) #3
  call void @llvm.lifetime.end.p0(i64 56, ptr %7) #3
  call void @llvm.lifetime.end.p0(i64 8, ptr %6) #3
  br label %62

59:                                               ; preds = %55
  store i1 false, ptr %3, align 1
  br label %60

60:                                               ; preds = %59, %55
  %61 = load i1, ptr %3, align 1
  ret i1 %61

62:                                               ; preds = %58
  %63 = load ptr, ptr %9, align 8
  %64 = load i32, ptr %10, align 4
  %65 = insertvalue { ptr, i32 } poison, ptr %63, 0
  %66 = insertvalue { ptr, i32 } %65, i32 %64, 1
  resume { ptr, i32 } %66

67:                                               ; preds = %55
  unreachable
}