; Function Attrs: mustprogress uwtable
define internal fastcc noundef zeroext i1 @"_Z6any_ofI8subtermsZN8intblast6solver5is_bvEN3sat7literalEE3$_0EbRKT_RKT0_"(ptr noundef nonnull align 8 dereferenceable(40) %0, ptr %.0.val) unnamed_addr #3 personality ptr @__gxx_personality_v0 {
  %2 = alloca %"class.subterms::iterator", align 8
  %3 = alloca %"class.subterms::iterator", align 8
  call void @llvm.lifetime.start.p0(i64 56, ptr nonnull %2) #26
  call void @_ZNK8subterms5beginEv(ptr dead_on_unwind nonnull writable sret(%"class.subterms::iterator") align 8 %2, ptr noundef nonnull align 8 dereferenceable(40) %0)
  call void @llvm.lifetime.start.p0(i64 56, ptr nonnull %3) #26
  invoke void @_ZNK8subterms3endEv(ptr dead_on_unwind nonnull writable sret(%"class.subterms::iterator") align 8 %3, ptr noundef nonnull align 8 dereferenceable(40) %0)
          to label %.preheader unwind label %8

.preheader:                                       ; preds = %1
  %4 = getelementptr inbounds nuw i8, ptr %.0.val, i64 136
  br label %5

5:                                                ; preds = %.preheader, %21
  %6 = invoke noundef zeroext i1 @_ZNK8subterms8iteratorneERKS0_(ptr noundef nonnull align 8 dereferenceable(56) %2, ptr noundef nonnull align 8 dereferenceable(56) %3)
          to label %7 unwind label %10

7:                                                ; preds = %5
  br i1 %6, label %12, label %23

8:                                                ; preds = %1
  %9 = landingpad { ptr, i32 }
          cleanup
  br label %53

10:                                               ; preds = %21, %5
  %11 = landingpad { ptr, i32 }
          cleanup
  br label %52

12:                                               ; preds = %7
  %13 = invoke noundef ptr @_ZN8subterms8iteratordeEv(ptr noundef nonnull align 8 dereferenceable(56) %2)
          to label %14 unwind label %17

14:                                               ; preds = %12
  %15 = invoke noundef ptr @_ZNK4expr8get_sortEv(ptr noundef nonnull align 4 dereferenceable(16) %13)
          to label %.noexc unwind label %19

.noexc:                                           ; preds = %14
  %16 = invoke noundef zeroext i1 @_ZNK14bv_recognizers10is_bv_sortEPK4sort(ptr noundef nonnull align 4 dereferenceable(4) %4, ptr noundef %15)
          to label %"_ZZN8intblast6solver5is_bvEN3sat7literalEENK3$_0clI4exprEEDaPT_.exit" unwind label %19

17:                                               ; preds = %12
  %18 = landingpad { ptr, i32 }
          cleanup
  br label %52

19:                                               ; preds = %.noexc, %14
  %20 = landingpad { ptr, i32 }
          cleanup
  br label %52

"_ZZN8intblast6solver5is_bvEN3sat7literalEENK3$_0clI4exprEEDaPT_.exit": ; preds = %.noexc
  br i1 %16, label %23, label %21

21:                                               ; preds = %"_ZZN8intblast6solver5is_bvEN3sat7literalEENK3$_0clI4exprEEDaPT_.exit"
  %22 = invoke noundef nonnull align 8 dereferenceable(56) ptr @_ZN8subterms8iteratorppEv(ptr noundef nonnull align 8 dereferenceable(56) %2)
          to label %5 unwind label %10

23:                                               ; preds = %7, %"_ZZN8intblast6solver5is_bvEN3sat7literalEENK3$_0clI4exprEEDaPT_.exit"
  %24 = getelementptr inbounds nuw i8, ptr %3, i64 40
  %25 = load ptr, ptr %24, align 8, !tbaa !545
  %26 = icmp eq ptr %25, null
  br i1 %26, label %_ZN8obj_markI4expr10bit_vector14default_t2uintIS0_EED2Ev.exit.i, label %27

27:                                               ; preds = %23
  invoke void @_ZN6memory10deallocateEPv(ptr noundef nonnull %25)
          to label %_ZN8obj_markI4expr10bit_vector14default_t2uintIS0_EED2Ev.exit.i unwind label %28

28:                                               ; preds = %27
  %29 = landingpad { ptr, i32 }
          catch ptr null
  %30 = extractvalue { ptr, i32 } %29, 0
  call void @__clang_call_terminate(ptr %30) #27
  unreachable

_ZN8obj_markI4expr10bit_vector14default_t2uintIS0_EED2Ev.exit.i: ; preds = %27, %23
  %31 = getelementptr inbounds nuw i8, ptr %3, i64 8
  %32 = load ptr, ptr %31, align 8, !tbaa !422
  %.not.i.i.i = icmp eq ptr %32, null
  br i1 %.not.i.i.i, label %_ZN8subterms8iteratorD2Ev.exit, label %33

33:                                               ; preds = %_ZN8obj_markI4expr10bit_vector14default_t2uintIS0_EED2Ev.exit.i
  %34 = getelementptr inbounds i8, ptr %32, i64 -8
  invoke void @_ZN6memory10deallocateEPv(ptr noundef nonnull %34)
          to label %_ZN8subterms8iteratorD2Ev.exit unwind label %35

35:                                               ; preds = %33
  %36 = landingpad { ptr, i32 }
          catch ptr null
  %37 = extractvalue { ptr, i32 } %36, 0
  call void @__clang_call_terminate(ptr %37) #27
  unreachable

_ZN8subterms8iteratorD2Ev.exit:                   ; preds = %_ZN8obj_markI4expr10bit_vector14default_t2uintIS0_EED2Ev.exit.i, %33
  call void @llvm.lifetime.end.p0(i64 56, ptr nonnull %3) #26
  %38 = getelementptr inbounds nuw i8, ptr %2, i64 40
  %39 = load ptr, ptr %38, align 8, !tbaa !545
  %40 = icmp eq ptr %39, null
  br i1 %40, label %_ZN8obj_markI4expr10bit_vector14default_t2uintIS0_EED2Ev.exit.i22, label %41

41:                                               ; preds = %_ZN8subterms8iteratorD2Ev.exit
  invoke void @_ZN6memory10deallocateEPv(ptr noundef nonnull %39)
          to label %_ZN8obj_markI4expr10bit_vector14default_t2uintIS0_EED2Ev.exit.i22 unwind label %42

42:                                               ; preds = %41
  %43 = landingpad { ptr, i32 }
          catch ptr null
  %44 = extractvalue { ptr, i32 } %43, 0
  call void @__clang_call_terminate(ptr %44) #27
  unreachable

_ZN8obj_markI4expr10bit_vector14default_t2uintIS0_EED2Ev.exit.i22: ; preds = %41, %_ZN8subterms8iteratorD2Ev.exit
  %45 = getelementptr inbounds nuw i8, ptr %2, i64 8
  %46 = load ptr, ptr %45, align 8, !tbaa !422
  %.not.i.i.i23 = icmp eq ptr %46, null
  br i1 %.not.i.i.i23, label %_ZN8subterms8iteratorD2Ev.exit24, label %47

47:                                               ; preds = %_ZN8obj_markI4expr10bit_vector14default_t2uintIS0_EED2Ev.exit.i22
  %48 = getelementptr inbounds i8, ptr %46, i64 -8
  invoke void @_ZN6memory10deallocateEPv(ptr noundef nonnull %48)
          to label %_ZN8subterms8iteratorD2Ev.exit24 unwind label %49

49:                                               ; preds = %47
  %50 = landingpad { ptr, i32 }
          catch ptr null
  %51 = extractvalue { ptr, i32 } %50, 0
  call void @__clang_call_terminate(ptr %51) #27
  unreachable

_ZN8subterms8iteratorD2Ev.exit24:                 ; preds = %_ZN8obj_markI4expr10bit_vector14default_t2uintIS0_EED2Ev.exit.i22, %47
  call void @llvm.lifetime.end.p0(i64 56, ptr nonnull %2) #26
  ret i1 %6

52:                                               ; preds = %17, %19, %10
  %.pn18 = phi { ptr, i32 } [ %11, %10 ], [ %20, %19 ], [ %18, %17 ]
  call void @_ZN8subterms8iteratorD2Ev(ptr noundef nonnull align 8 dereferenceable(56) %3) #26
  br label %53

53:                                               ; preds = %52, %8
  %.pn18.pn = phi { ptr, i32 } [ %.pn18, %52 ], [ %9, %8 ]
  call void @llvm.lifetime.end.p0(i64 56, ptr nonnull %3) #26
  call void @_ZN8subterms8iteratorD2Ev(ptr noundef nonnull align 8 dereferenceable(56) %2) #26
  call void @llvm.lifetime.end.p0(i64 56, ptr nonnull %2) #26
  resume { ptr, i32 } %.pn18.pn
}